target datalayout = "e-m:e-p270:32:32-p271:32:32-p272:64:64-i64:64-i128:128-f80:128-n8:16:32:64-S128"
target triple = "x86_64-unknown-linux-gnu"

%"struct.node::AssertionInfo" = type { ptr, ptr, ptr }
%"class.node::MemoryRetainer" = type { ptr }
%"class.node::quic::Store" = type { %"class.node::MemoryRetainer", %"class.std::shared_ptr", i64, i64 }
%"class.std::shared_ptr" = type { %"class.std::__shared_ptr" }
%"class.std::__shared_ptr" = type { ptr, %"class.std::__shared_count" }
%"class.std::__shared_count" = type { ptr }

@_ZZN4node4quic5StoreC1ESt10unique_ptrIN2v812BackingStoreESt14default_deleteIS4_EEmmE4args = internal constant %"struct.node::AssertionInfo" { ptr @.str.5, ptr @.str.1, ptr @.str.6 }, align 8
@_ZZN4node4quic5StoreC1ESt10unique_ptrIN2v812BackingStoreESt14default_deleteIS4_EEmmE4args_0 = internal constant %"struct.node::AssertionInfo" { ptr @.str.7, ptr @.str.4, ptr @.str.6 }, align 8

; Function Attrs: mustprogress nounwind uwtable
define linkonce_odr dso_local noundef ptr @_ZNKSt12__shared_ptrIN2v812BackingStoreELN9__gnu_cxx12_Lock_policyE2EE3getEv(ptr noundef nonnull align 8 dereferenceable(16) %this) #4 comdat align 2 {
entry:
  %this.addr = alloca ptr, align 8
  store ptr %this, ptr %this.addr, align 8
  %this1 = load ptr, ptr %this.addr, align 8
  %_M_ptr = getelementptr inbounds %"class.std::__shared_ptr", ptr %this1, i32 0, i32 0
  %0 = load ptr, ptr %_M_ptr, align 8
  ret ptr %0
}

; Function Attrs: mustprogress nounwind uwtable
define linkonce_odr dso_local noundef ptr @_ZNKSt19__shared_ptr_accessIN2v812BackingStoreELN9__gnu_cxx12_Lock_policyE2ELb0ELb0EE6_M_getEv(ptr noundef nonnull align 1 dereferenceable(1) %this) #4 comdat align 2 {
entry:
  %this.addr = alloca ptr, align 8
  store ptr %this, ptr %this.addr, align 8
  %this1 = load ptr, ptr %this.addr, align 8
  %call = call noundef ptr @_ZNKSt12__shared_ptrIN2v812BackingStoreELN9__gnu_cxx12_Lock_policyE2EE3getEv(ptr noundef nonnull align 8 dereferenceable(16) %this1) #3
  ret ptr %call
}

; Function Attrs: mustprogress nounwind uwtable
define linkonce_odr dso_local noundef ptr @_ZNKSt19__shared_ptr_accessIN2v812BackingStoreELN9__gnu_cxx12_Lock_policyE2ELb0ELb0EEptEv(ptr noundef nonnull align 1 dereferenceable(1) %this) #4 comdat align 2 {
entry:
  %this.addr = alloca ptr, align 8
  store ptr %this, ptr %this.addr, align 8
  %this1 = load ptr, ptr %this.addr, align 8
  %call = call noundef ptr @_ZNKSt19__shared_ptr_accessIN2v812BackingStoreELN9__gnu_cxx12_Lock_policyE2ELb0ELb0EE6_M_getEv(ptr noundef nonnull align 1 dereferenceable(1) %this1) #3
  ret ptr %call
}

; Function Attrs: mustprogress nounwind uwtable
define linkonce_odr dso_local void @_ZNSt10shared_ptrIN2v812BackingStoreEEC2IS1_St14default_deleteIS1_EvEEOSt10unique_ptrIT_T0_E(ptr noundef nonnull align 8 dereferenceable(16) %this, ptr noundef nonnull align 8 dereferenceable(8) %__r) unnamed_addr #4 comdat align 2 {
entry:
  %this.addr = alloca ptr, align 8
  %__r.addr = alloca ptr, align 8
  store ptr %this, ptr %this.addr, align 8
  store ptr %__r, ptr %__r.addr, align 8
  %this1 = load ptr, ptr %this.addr, align 8
  %0 = load ptr, ptr %__r.addr, align 8
  call void @_ZNSt12__shared_ptrIN2v812BackingStoreELN9__gnu_cxx12_Lock_policyE2EEC2IS1_St14default_deleteIS1_EvEEOSt10unique_ptrIT_T0_E(ptr noundef nonnull align 8 dereferenceable(16) %this1, ptr noundef nonnull align 8 dereferenceable(8) %0)
  ret void
}

; Function Attrs: mustprogress nounwind uwtable
define linkonce_odr dso_local void @_ZN4node14MemoryRetainerC2Ev(ptr noundef nonnull align 8 dereferenceable(8) %this) unnamed_addr #4 comdat align 2 {
entry:
  %this.addr = alloca ptr, align 8
  store ptr %this, ptr %this.addr, align 8
  %this1 = load ptr, ptr %this.addr, align 8
  store ptr getelementptr inbounds ({ [10 x ptr] }, ptr @_ZTVN4node14MemoryRetainerE, i32 0, i32 0, i32 2), ptr %this1, align 8
  ret void
}

; Function Attrs: mustprogress nounwind uwtable
define dso_local void @_ZN4node4quic5StoreC2ESt10unique_ptrIN2v812BackingStoreESt14default_deleteIS4_EEmm(ptr noundef nonnull align 8 dereferenceable(40) %this, ptr noundef %store, i64 noundef %length, i64 noundef %offset) unnamed_addr #4 align 2 {
entry:
  %this.addr = alloca ptr, align 8
  %store.indirect_addr = alloca ptr, align 8
  %length.addr = alloca i64, align 8
  %offset.addr = alloca i64, align 8
  store ptr %this, ptr %this.addr, align 8
  store ptr %store, ptr %store.indirect_addr, align 8
  store i64 %length, ptr %length.addr, align 8
  store i64 %offset, ptr %offset.addr, align 8
  %this1 = load ptr, ptr %this.addr, align 8
  call void @_ZN4node14MemoryRetainerC2Ev(ptr noundef nonnull align 8 dereferenceable(8) %this1) #3
  store ptr getelementptr inbounds ({ [10 x ptr] }, ptr @_ZTVN4node4quic5StoreE, i32 0, i32 0, i32 2), ptr %this1, align 8
  %store_ = getelementptr inbounds %"class.node::quic::Store", ptr %this1, i32 0, i32 1
  call void @_ZNSt10shared_ptrIN2v812BackingStoreEEC2IS1_St14default_deleteIS1_EvEEOSt10unique_ptrIT_T0_E(ptr noundef nonnull align 8 dereferenceable(16) %store_, ptr noundef nonnull align 8 dereferenceable(8) %store)
  %length_ = getelementptr inbounds %"class.node::quic::Store", ptr %this1, i32 0, i32 2
  %0 = load i64, ptr %length.addr, align 8
  store i64 %0, ptr %length_, align 8
  %offset_ = getelementptr inbounds %"class.node::quic::Store", ptr %this1, i32 0, i32 3
  %1 = load i64, ptr %offset.addr, align 8
  store i64 %1, ptr %offset_, align 8
  br label %do.body

do.body:                                          ; preds = %entry
  %offset_2 = getelementptr inbounds %"class.node::quic::Store", ptr %this1, i32 0, i32 3
  %2 = load i64, ptr %offset_2, align 8
  %store_3 = getelementptr inbounds %"class.node::quic::Store", ptr %this1, i32 0, i32 1
  %call = call noundef ptr @_ZNKSt19__shared_ptr_accessIN2v812BackingStoreELN9__gnu_cxx12_Lock_policyE2ELb0ELb0EEptEv(ptr noundef nonnull align 1 dereferenceable(1) %store_3) #3
  %call4 = call noundef i64 @_ZNK2v812BackingStore10ByteLengthEv(ptr noundef nonnull align 1 dereferenceable(1) %call)
  %cmp = icmp ule i64 %2, %call4
  %lnot = xor i1 %cmp, true
  %lnot5 = xor i1 %lnot, true
  %lnot6 = xor i1 %lnot5, true
  br i1 %lnot6, label %if.then, label %if.end

if.then:                                          ; preds = %do.body
  br label %do.body7

do.body7:                                         ; preds = %if.then
  call void @_ZN4node6AssertERKNS_13AssertionInfoE(ptr noundef nonnull align 8 dereferenceable(24) @_ZZN4node4quic5StoreC1ESt10unique_ptrIN2v812BackingStoreESt14default_deleteIS4_EEmmE4args)
  call void @abort() #12
  unreachable

do.end:                                           ; No predecessors!
  br label %if.end

if.end:                                           ; preds = %do.end, %do.body
  br label %do.end8

do.end8:                                          ; preds = %if.end
  br label %do.body9

do.body9:                                         ; preds = %do.end8
  %length_10 = getelementptr inbounds %"class.node::quic::Store", ptr %this1, i32 0, i32 2
  %3 = load i64, ptr %length_10, align 8
  %store_11 = getelementptr inbounds %"class.node::quic::Store", ptr %this1, i32 0, i32 1
  %call12 = call noundef ptr @_ZNKSt19__shared_ptr_accessIN2v812BackingStoreELN9__gnu_cxx12_Lock_policyE2ELb0ELb0EEptEv(ptr noundef nonnull align 1 dereferenceable(1) %store_11) #3
  %call13 = call noundef i64 @_ZNK2v812BackingStore10ByteLengthEv(ptr noundef nonnull align 1 dereferenceable(1) %call12)
  %offset_14 = getelementptr inbounds %"class.node::quic::Store", ptr %this1, i32 0, i32 3
  %4 = load i64, ptr %offset_14, align 8
  %sub = sub i64 %call13, %4
  %cmp15 = icmp ule i64 %3, %sub
  %lnot16 = xor i1 %cmp15, true
  %lnot17 = xor i1 %lnot16, true
  %lnot18 = xor i1 %lnot17, true
  br i1 %lnot18, label %if.then19, label %if.end22

if.then19:                                        ; preds = %do.body9
  br label %do.body20

do.body20:                                        ; preds = %if.then19
  call void @_ZN4node6AssertERKNS_13AssertionInfoE(ptr noundef nonnull align 8 dereferenceable(24) @_ZZN4node4quic5StoreC1ESt10unique_ptrIN2v812BackingStoreESt14default_deleteIS4_EEmmE4args_0)
  call void @abort() #12
  unreachable

do.end21:                                         ; No predecessors!
  br label %if.end22

if.end22:                                         ; preds = %do.end21, %do.body9
  br label %do.end23

do.end23:                                         ; preds = %if.end22
  ret void
}