; Function Attrs: mustprogress nounwind uwtable
define dso_local void @_ZN4node4quic5StoreC2ESt10unique_ptrIN2v812BackingStoreESt14default_deleteIS4_EEmm(ptr noundef nonnull align 8 dereferenceable(40) %this, ptr noundef nonnull %store, i64 noundef %length, i64 noundef %offset) unnamed_addr #3 align 2 {
entry:
  store ptr getelementptr inbounds ({ [10 x ptr] }, ptr @_ZTVN4node4quic5StoreE, i64 0, i32 0, i64 2), ptr %this, align 8
  %store_ = getelementptr inbounds i8, ptr %this, i64 8
  tail call void @_ZNSt12__shared_ptrIN2v812BackingStoreELN9__gnu_cxx12_Lock_policyE2EEC2IS1_St14default_deleteIS1_EvEEOSt10unique_ptrIT_T0_E(ptr noundef nonnull align 8 dereferenceable(16) %store_, ptr noundef nonnull align 8 dereferenceable(8) %store)
  %length_ = getelementptr inbounds i8, ptr %this, i64 24
  store i64 %length, ptr %length_, align 8
  %offset_ = getelementptr inbounds i8, ptr %this, i64 32
  store i64 %offset, ptr %offset_, align 8
  %0 = load ptr, ptr %store_, align 8
  %call4 = tail call noundef i64 @_ZNK2v812BackingStore10ByteLengthEv(ptr noundef nonnull align 1 dereferenceable(1) %0) #16
  %cmp.not = icmp ult i64 %call4, %offset
  br i1 %cmp.not, label %do.body7, label %do.body9

do.body7:                                         ; preds = %entry
  tail call void @_ZN4node6AssertERKNS_13AssertionInfoE(ptr noundef nonnull align 8 dereferenceable(24) @_ZZN4node4quic5StoreC1ESt10unique_ptrIN2v812BackingStoreESt14default_deleteIS4_EEmmE4args) #16
  tail call void @abort() #17
  unreachable

do.body9:                                         ; preds = %entry
  %1 = load i64, ptr %length_, align 8
  %2 = load ptr, ptr %store_, align 8
  %call13 = tail call noundef i64 @_ZNK2v812BackingStore10ByteLengthEv(ptr noundef nonnull align 1 dereferenceable(1) %2) #16
  %3 = load i64, ptr %offset_, align 8
  %sub = sub i64 %call13, %3
  %cmp15.not = icmp ugt i64 %1, %sub
  br i1 %cmp15.not, label %do.body20, label %do.end23

do.body20:                                        ; preds = %do.body9
  tail call void @_ZN4node6AssertERKNS_13AssertionInfoE(ptr noundef nonnull align 8 dereferenceable(24) @_ZZN4node4quic5StoreC1ESt10unique_ptrIN2v812BackingStoreESt14default_deleteIS4_EEmmE4args_0) #16
  tail call void @abort() #17
  unreachable

do.end23:                                         ; preds = %do.body9
  ret void
}